target datalayout = "e-m:e-p270:32:32-p271:32:32-p272:64:64-i64:64-i128:128-f80:128-n8:16:32:64-S128"
target triple = "x86_64-pc-linux-gnu"

%struct.lean_object = type { i32, i32 }
%struct.lean_ctor_object = type { %struct.lean_object, [0 x ptr] }

@l_Lean_addTrace___at_Lean_Elab_Tactic_BVDecide_Frontend_Normalize_VarStateM_computeCoefficients_go___spec__2___closed__1 = internal global double 0.000000e+00, align 8

; Function Attrs: inlinehint nounwind uwtable
define internal ptr @lean_to_ctor(ptr noundef %0) #0 {
  %2 = alloca ptr, align 8
  store ptr %0, ptr %2, align 8, !tbaa !4
  %3 = load ptr, ptr %2, align 8, !tbaa !4
  ret ptr %3
}

; Function Attrs: inlinehint nounwind uwtable
define internal ptr @lean_alloc_small_object(i32 noundef %0) #0 {
  %2 = alloca i32, align 4
  %3 = alloca ptr, align 8
  %4 = alloca ptr, align 8
  store i32 %0, ptr %2, align 4, !tbaa !15
  call void @lean_inc_heartbeat()
  %5 = load i32, ptr %2, align 4, !tbaa !15
  %6 = zext i32 %5 to i64
  %7 = call i64 @lean_align(i64 noundef %6, i64 noundef 8)
  %8 = trunc i64 %7 to i32
  store i32 %8, ptr %2, align 4, !tbaa !15
  call void @llvm.lifetime.start.p0(i64 8, ptr %3) #8
  %9 = load i32, ptr %2, align 4, !tbaa !15
  %10 = zext i32 %9 to i64
  %11 = call noalias ptr @mi_malloc_small(i64 noundef %10)
  store ptr %11, ptr %3, align 8, !tbaa !4
  %12 = load ptr, ptr %3, align 8, !tbaa !4
  %13 = icmp eq ptr %12, null
  br i1 %13, label %14, label %15

14:                                               ; preds = %1
  call void @lean_internal_panic_out_of_memory() #7
  unreachable

15:                                               ; preds = %1
  call void @llvm.lifetime.start.p0(i64 8, ptr %4) #8
  %16 = load ptr, ptr %3, align 8, !tbaa !4
  store ptr %16, ptr %4, align 8, !tbaa !4
  %17 = load i32, ptr %2, align 4, !tbaa !15
  %18 = load ptr, ptr %4, align 8, !tbaa !4
  %19 = getelementptr inbounds nuw %struct.lean_object, ptr %18, i32 0, i32 1
  %20 = load i32, ptr %19, align 4
  %21 = and i32 %17, 65535
  %22 = and i32 %20, -65536
  %23 = or i32 %22, %21
  store i32 %23, ptr %19, align 4
  %24 = load ptr, ptr %4, align 8, !tbaa !4
  call void @llvm.lifetime.end.p0(i64 8, ptr %4) #8
  call void @llvm.lifetime.end.p0(i64 8, ptr %3) #8
  ret ptr %24
}

; Function Attrs: inlinehint nounwind uwtable
define internal i64 @lean_align(i64 noundef %0, i64 noundef %1) #0 {
  %3 = alloca i64, align 8
  %4 = alloca i64, align 8
  store i64 %0, ptr %3, align 8, !tbaa !10
  store i64 %1, ptr %4, align 8, !tbaa !10
  %5 = load i64, ptr %3, align 8, !tbaa !10
  %6 = load i64, ptr %4, align 8, !tbaa !10
  %7 = udiv i64 %5, %6
  %8 = load i64, ptr %4, align 8, !tbaa !10
  %9 = mul i64 %7, %8
  %10 = load i64, ptr %4, align 8, !tbaa !10
  %11 = load i64, ptr %3, align 8, !tbaa !10
  %12 = load i64, ptr %4, align 8, !tbaa !10
  %13 = urem i64 %11, %12
  %14 = icmp ne i64 %13, 0
  %15 = zext i1 %14 to i32
  %16 = sext i32 %15 to i64
  %17 = mul i64 %10, %16
  %18 = add i64 %9, %17
  ret i64 %18
}

; Function Attrs: inlinehint nounwind uwtable
define internal ptr @lean_ctor_obj_cptr(ptr noundef %0) #0 {
  %2 = alloca ptr, align 8
  store ptr %0, ptr %2, align 8, !tbaa !4
  %3 = load ptr, ptr %2, align 8, !tbaa !4
  %4 = call ptr @lean_to_ctor(ptr noundef %3)
  %5 = getelementptr inbounds nuw %struct.lean_ctor_object, ptr %4, i32 0, i32 1
  %6 = getelementptr inbounds [0 x ptr], ptr %5, i64 0, i64 0
  ret ptr %6
}

; Function Attrs: inlinehint nounwind uwtable
define internal void @lean_set_st_header(ptr noundef %0, i32 noundef %1, i32 noundef %2) #0 {
  %4 = alloca ptr, align 8
  %5 = alloca i32, align 4
  %6 = alloca i32, align 4
  store ptr %0, ptr %4, align 8, !tbaa !4
  store i32 %1, ptr %5, align 4, !tbaa !15
  store i32 %2, ptr %6, align 4, !tbaa !15
  %7 = load ptr, ptr %4, align 8, !tbaa !4
  %8 = getelementptr inbounds nuw %struct.lean_object, ptr %7, i32 0, i32 0
  store i32 1, ptr %8, align 4, !tbaa !19
  %9 = load i32, ptr %5, align 4, !tbaa !15
  %10 = load ptr, ptr %4, align 8, !tbaa !4
  %11 = getelementptr inbounds nuw %struct.lean_object, ptr %10, i32 0, i32 1
  %12 = load i32, ptr %11, align 4
  %13 = and i32 %9, 255
  %14 = shl i32 %13, 24
  %15 = and i32 %12, 16777215
  %16 = or i32 %15, %14
  store i32 %16, ptr %11, align 4
  %17 = load i32, ptr %6, align 4, !tbaa !15
  %18 = load ptr, ptr %4, align 8, !tbaa !4
  %19 = getelementptr inbounds nuw %struct.lean_object, ptr %18, i32 0, i32 1
  %20 = load i32, ptr %19, align 4
  %21 = and i32 %17, 255
  %22 = shl i32 %21, 16
  %23 = and i32 %20, -16711681
  %24 = or i32 %23, %22
  store i32 %24, ptr %19, align 4
  ret void
}

; Function Attrs: inlinehint nounwind uwtable
define internal ptr @lean_alloc_ctor_memory(i32 noundef %0) #0 {
  %2 = alloca i32, align 4
  %3 = alloca i32, align 4
  %4 = alloca ptr, align 8
  %5 = alloca ptr, align 8
  store i32 %0, ptr %2, align 4, !tbaa !15
  call void @llvm.lifetime.start.p0(i64 4, ptr %3) #8
  %6 = load i32, ptr %2, align 4, !tbaa !15
  %7 = zext i32 %6 to i64
  %8 = call i64 @lean_align(i64 noundef %7, i64 noundef 8)
  %9 = trunc i64 %8 to i32
  store i32 %9, ptr %3, align 4, !tbaa !15
  call void @llvm.lifetime.start.p0(i64 8, ptr %4) #8
  %10 = load i32, ptr %2, align 4, !tbaa !15
  %11 = call ptr @lean_alloc_small_object(i32 noundef %10)
  store ptr %11, ptr %4, align 8, !tbaa !4
  %12 = load i32, ptr %3, align 4, !tbaa !15
  %13 = load i32, ptr %2, align 4, !tbaa !15
  %14 = icmp ugt i32 %12, %13
  br i1 %14, label %15, label %22

15:                                               ; preds = %1
  call void @llvm.lifetime.start.p0(i64 8, ptr %5) #8
  %16 = load ptr, ptr %4, align 8, !tbaa !4
  %17 = load i32, ptr %3, align 4, !tbaa !15
  %18 = zext i32 %17 to i64
  %19 = getelementptr inbounds nuw i8, ptr %16, i64 %18
  store ptr %19, ptr %5, align 8, !tbaa !25
  %20 = load ptr, ptr %5, align 8, !tbaa !25
  %21 = getelementptr inbounds i64, ptr %20, i64 -1
  store i64 0, ptr %21, align 8, !tbaa !10
  call void @llvm.lifetime.end.p0(i64 8, ptr %5) #8
  br label %22

22:                                               ; preds = %15, %1
  %23 = load ptr, ptr %4, align 8, !tbaa !4
  call void @llvm.lifetime.end.p0(i64 8, ptr %4) #8
  call void @llvm.lifetime.end.p0(i64 4, ptr %3) #8
  ret ptr %23
}

; Function Attrs: inlinehint nounwind uwtable
define internal ptr @lean_box(i64 noundef %0) #0 {
  %2 = alloca i64, align 8
  store i64 %0, ptr %2, align 8, !tbaa !10
  %3 = load i64, ptr %2, align 8, !tbaa !10
  %4 = shl i64 %3, 1
  %5 = or i64 %4, 1
  %6 = inttoptr i64 %5 to ptr
  ret ptr %6
}

; Function Attrs: inlinehint nounwind uwtable
define internal void @lean_ctor_set_uint8(ptr noundef %0, i32 noundef %1, i8 noundef zeroext %2) #0 {
  %4 = alloca ptr, align 8
  %5 = alloca i32, align 4
  %6 = alloca i8, align 1
  store ptr %0, ptr %4, align 8, !tbaa !4
  store i32 %1, ptr %5, align 4, !tbaa !15
  store i8 %2, ptr %6, align 1, !tbaa !14
  %7 = load i8, ptr %6, align 1, !tbaa !14
  %8 = load ptr, ptr %4, align 8, !tbaa !4
  %9 = call ptr @lean_ctor_obj_cptr(ptr noundef %8)
  %10 = load i32, ptr %5, align 4, !tbaa !15
  %11 = zext i32 %10 to i64
  %12 = getelementptr inbounds nuw i8, ptr %9, i64 %11
  store i8 %7, ptr %12, align 1, !tbaa !14
  ret void
}

; Function Attrs: inlinehint nounwind uwtable
define internal void @lean_ctor_set_float(ptr noundef %0, i32 noundef %1, double noundef %2) #0 {
  %4 = alloca ptr, align 8
  %5 = alloca i32, align 4
  %6 = alloca double, align 8
  store ptr %0, ptr %4, align 8, !tbaa !4
  store i32 %1, ptr %5, align 4, !tbaa !15
  store double %2, ptr %6, align 8, !tbaa !8
  %7 = load double, ptr %6, align 8, !tbaa !8
  %8 = load ptr, ptr %4, align 8, !tbaa !4
  %9 = call ptr @lean_ctor_obj_cptr(ptr noundef %8)
  %10 = load i32, ptr %5, align 4, !tbaa !15
  %11 = zext i32 %10 to i64
  %12 = getelementptr inbounds nuw i8, ptr %9, i64 %11
  store double %7, ptr %12, align 8, !tbaa !8
  ret void
}

; Function Attrs: inlinehint nounwind uwtable
define internal void @lean_ctor_set(ptr noundef %0, i32 noundef %1, ptr noundef %2) #0 {
  %4 = alloca ptr, align 8
  %5 = alloca i32, align 4
  %6 = alloca ptr, align 8
  store ptr %0, ptr %4, align 8, !tbaa !4
  store i32 %1, ptr %5, align 4, !tbaa !15
  store ptr %2, ptr %6, align 8, !tbaa !4
  %7 = load ptr, ptr %6, align 8, !tbaa !4
  %8 = load ptr, ptr %4, align 8, !tbaa !4
  %9 = call ptr @lean_ctor_obj_cptr(ptr noundef %8)
  %10 = load i32, ptr %5, align 4, !tbaa !15
  %11 = zext i32 %10 to i64
  %12 = getelementptr inbounds nuw ptr, ptr %9, i64 %11
  store ptr %7, ptr %12, align 8, !tbaa !4
  ret void
}

; Function Attrs: inlinehint nounwind uwtable
define internal ptr @lean_alloc_ctor(i32 noundef %0, i32 noundef %1, i32 noundef %2) #0 {
  %4 = alloca i32, align 4
  %5 = alloca i32, align 4
  %6 = alloca i32, align 4
  %7 = alloca ptr, align 8
  store i32 %0, ptr %4, align 4, !tbaa !15
  store i32 %1, ptr %5, align 4, !tbaa !15
  store i32 %2, ptr %6, align 4, !tbaa !15
  call void @llvm.lifetime.start.p0(i64 8, ptr %7) #8
  %8 = load i32, ptr %5, align 4, !tbaa !15
  %9 = zext i32 %8 to i64
  %10 = mul i64 8, %9
  %11 = add i64 8, %10
  %12 = load i32, ptr %6, align 4, !tbaa !15
  %13 = zext i32 %12 to i64
  %14 = add i64 %11, %13
  %15 = trunc i64 %14 to i32
  %16 = call ptr @lean_alloc_ctor_memory(i32 noundef %15)
  store ptr %16, ptr %7, align 8, !tbaa !4
  %17 = load ptr, ptr %7, align 8, !tbaa !4
  %18 = load i32, ptr %4, align 4, !tbaa !15
  %19 = load i32, ptr %5, align 4, !tbaa !15
  call void @lean_set_st_header(ptr noundef %17, i32 noundef %18, i32 noundef %19)
  %20 = load ptr, ptr %7, align 8, !tbaa !4
  call void @llvm.lifetime.end.p0(i64 8, ptr %7) #8
  ret ptr %20
}

; Function Attrs: nounwind uwtable
define ptr @l_Lean_withTraceNode___at_Lean_Elab_Tactic_BVDecide_Frontend_Normalize_canonicalizeWithSharing___spec__2___lambda__2(ptr noundef %0, i8 noundef zeroext %1, ptr noundef %2, ptr noundef %3, ptr noundef %4, ptr noundef %5, i8 noundef zeroext %6, double noundef %7, double noundef %8, ptr noundef %9, ptr noundef %10, ptr noundef %11, ptr noundef %12, ptr noundef %13, ptr noundef %14, ptr noundef %15, ptr noundef %16, ptr noundef %17) #2 {
  %19 = alloca ptr, align 8
  %20 = alloca ptr, align 8
  %21 = alloca i8, align 1
  %22 = alloca ptr, align 8
  %23 = alloca ptr, align 8
  %24 = alloca ptr, align 8
  %25 = alloca ptr, align 8
  %26 = alloca i8, align 1
  %27 = alloca double, align 8
  %28 = alloca double, align 8
  %29 = alloca ptr, align 8
  %30 = alloca ptr, align 8
  %31 = alloca ptr, align 8
  %32 = alloca ptr, align 8
  %33 = alloca ptr, align 8
  %34 = alloca ptr, align 8
  %35 = alloca ptr, align 8
  %36 = alloca ptr, align 8
  %37 = alloca ptr, align 8
  %38 = alloca double, align 8
  %39 = alloca ptr, align 8
  %40 = alloca ptr, align 8
  %41 = alloca ptr, align 8
  %42 = alloca ptr, align 8
  %43 = alloca ptr, align 8
  %44 = alloca ptr, align 8
  store ptr %0, ptr %20, align 8, !tbaa !4
  store i8 %1, ptr %21, align 1, !tbaa !14
  store ptr %2, ptr %22, align 8, !tbaa !4
  store ptr %3, ptr %23, align 8, !tbaa !4
  store ptr %4, ptr %24, align 8, !tbaa !4
  store ptr %5, ptr %25, align 8, !tbaa !4
  store i8 %6, ptr %26, align 1, !tbaa !14
  store double %7, ptr %27, align 8, !tbaa !8
  store double %8, ptr %28, align 8, !tbaa !8
  store ptr %9, ptr %29, align 8, !tbaa !4
  store ptr %10, ptr %30, align 8, !tbaa !4
  store ptr %11, ptr %31, align 8, !tbaa !4
  store ptr %12, ptr %32, align 8, !tbaa !4
  store ptr %13, ptr %33, align 8, !tbaa !4
  store ptr %14, ptr %34, align 8, !tbaa !4
  store ptr %15, ptr %35, align 8, !tbaa !4
  store ptr %16, ptr %36, align 8, !tbaa !4
  store ptr %17, ptr %37, align 8, !tbaa !4
  br label %45

45:                                               ; preds = %18
  %46 = load i8, ptr %26, align 1, !tbaa !14
  %47 = zext i8 %46 to i32
  %48 = icmp eq i32 %47, 0
  br i1 %48, label %49, label %79

49:                                               ; preds = %45
  call void @llvm.lifetime.start.p0(i64 8, ptr %38) #8
  call void @llvm.lifetime.start.p0(i64 8, ptr %39) #8
  call void @llvm.lifetime.start.p0(i64 8, ptr %40) #8
  call void @llvm.lifetime.start.p0(i64 8, ptr %41) #8
  %50 = load double, ptr @l_Lean_addTrace___at_Lean_Elab_Tactic_BVDecide_Frontend_Normalize_VarStateM_computeCoefficients_go___spec__2___closed__1, align 8, !tbaa !8
  store double %50, ptr %38, align 8, !tbaa !8
  %51 = call ptr @lean_alloc_ctor(i32 noundef 0, i32 noundef 2, i32 noundef 17)
  store ptr %51, ptr %39, align 8, !tbaa !4
  %52 = load ptr, ptr %39, align 8, !tbaa !4
  %53 = load ptr, ptr %20, align 8, !tbaa !4
  call void @lean_ctor_set(ptr noundef %52, i32 noundef 0, ptr noundef %53)
  %54 = load ptr, ptr %39, align 8, !tbaa !4
  %55 = load ptr, ptr %22, align 8, !tbaa !4
  call void @lean_ctor_set(ptr noundef %54, i32 noundef 1, ptr noundef %55)
  %56 = load ptr, ptr %39, align 8, !tbaa !4
  %57 = load double, ptr %38, align 8, !tbaa !8
  call void @lean_ctor_set_float(ptr noundef %56, i32 noundef 16, double noundef %57)
  %58 = load ptr, ptr %39, align 8, !tbaa !4
  %59 = load double, ptr %38, align 8, !tbaa !8
  call void @lean_ctor_set_float(ptr noundef %58, i32 noundef 24, double noundef %59)
  %60 = load ptr, ptr %39, align 8, !tbaa !4
  %61 = load i8, ptr %21, align 1, !tbaa !14
  call void @lean_ctor_set_uint8(ptr noundef %60, i32 noundef 32, i8 noundef zeroext %61)
  %62 = call ptr @lean_box(i64 noundef 0)
  store ptr %62, ptr %40, align 8, !tbaa !4
  %63 = load ptr, ptr %23, align 8, !tbaa !4
  %64 = load ptr, ptr %24, align 8, !tbaa !4
  %65 = load ptr, ptr %29, align 8, !tbaa !4
  %66 = load ptr, ptr %25, align 8, !tbaa !4
  %67 = load ptr, ptr %39, align 8, !tbaa !4
  %68 = load ptr, ptr %40, align 8, !tbaa !4
  %69 = load ptr, ptr %30, align 8, !tbaa !4
  %70 = load ptr, ptr %31, align 8, !tbaa !4
  %71 = load ptr, ptr %32, align 8, !tbaa !4
  %72 = load ptr, ptr %33, align 8, !tbaa !4
  %73 = load ptr, ptr %34, align 8, !tbaa !4
  %74 = load ptr, ptr %35, align 8, !tbaa !4
  %75 = load ptr, ptr %36, align 8, !tbaa !4
  %76 = load ptr, ptr %37, align 8, !tbaa !4
  %77 = call ptr @l_Lean_withTraceNode___at_Lean_Elab_Tactic_BVDecide_Frontend_Normalize_canonicalizeWithSharing___spec__2___lambda__1(ptr noundef %63, ptr noundef %64, ptr noundef %65, ptr noundef %66, ptr noundef %67, ptr noundef %68, ptr noundef %69, ptr noundef %70, ptr noundef %71, ptr noundef %72, ptr noundef %73, ptr noundef %74, ptr noundef %75, ptr noundef %76)
  store ptr %77, ptr %41, align 8, !tbaa !4
  %78 = load ptr, ptr %41, align 8, !tbaa !4
  store ptr %78, ptr %19, align 8
  call void @llvm.lifetime.end.p0(i64 8, ptr %41) #8
  call void @llvm.lifetime.end.p0(i64 8, ptr %40) #8
  call void @llvm.lifetime.end.p0(i64 8, ptr %39) #8
  call void @llvm.lifetime.end.p0(i64 8, ptr %38) #8
  br label %108

79:                                               ; preds = %45
  call void @llvm.lifetime.start.p0(i64 8, ptr %42) #8
  call void @llvm.lifetime.start.p0(i64 8, ptr %43) #8
  call void @llvm.lifetime.start.p0(i64 8, ptr %44) #8
  %80 = call ptr @lean_alloc_ctor(i32 noundef 0, i32 noundef 2, i32 noundef 17)
  store ptr %80, ptr %42, align 8, !tbaa !4
  %81 = load ptr, ptr %42, align 8, !tbaa !4
  %82 = load ptr, ptr %20, align 8, !tbaa !4
  call void @lean_ctor_set(ptr noundef %81, i32 noundef 0, ptr noundef %82)
  %83 = load ptr, ptr %42, align 8, !tbaa !4
  %84 = load ptr, ptr %22, align 8, !tbaa !4
  call void @lean_ctor_set(ptr noundef %83, i32 noundef 1, ptr noundef %84)
  %85 = load ptr, ptr %42, align 8, !tbaa !4
  %86 = load double, ptr %27, align 8, !tbaa !8
  call void @lean_ctor_set_float(ptr noundef %85, i32 noundef 16, double noundef %86)
  %87 = load ptr, ptr %42, align 8, !tbaa !4
  %88 = load double, ptr %28, align 8, !tbaa !8
  call void @lean_ctor_set_float(ptr noundef %87, i32 noundef 24, double noundef %88)
  %89 = load ptr, ptr %42, align 8, !tbaa !4
  %90 = load i8, ptr %21, align 1, !tbaa !14
  call void @lean_ctor_set_uint8(ptr noundef %89, i32 noundef 32, i8 noundef zeroext %90)
  %91 = call ptr @lean_box(i64 noundef 0)
  store ptr %91, ptr %43, align 8, !tbaa !4
  %92 = load ptr, ptr %23, align 8, !tbaa !4
  %93 = load ptr, ptr %24, align 8, !tbaa !4
  %94 = load ptr, ptr %29, align 8, !tbaa !4
  %95 = load ptr, ptr %25, align 8, !tbaa !4
  %96 = load ptr, ptr %42, align 8, !tbaa !4
  %97 = load ptr, ptr %43, align 8, !tbaa !4
  %98 = load ptr, ptr %30, align 8, !tbaa !4
  %99 = load ptr, ptr %31, align 8, !tbaa !4
  %100 = load ptr, ptr %32, align 8, !tbaa !4
  %101 = load ptr, ptr %33, align 8, !tbaa !4
  %102 = load ptr, ptr %34, align 8, !tbaa !4
  %103 = load ptr, ptr %35, align 8, !tbaa !4
  %104 = load ptr, ptr %36, align 8, !tbaa !4
  %105 = load ptr, ptr %37, align 8, !tbaa !4
  %106 = call ptr @l_Lean_withTraceNode___at_Lean_Elab_Tactic_BVDecide_Frontend_Normalize_canonicalizeWithSharing___spec__2___lambda__1(ptr noundef %92, ptr noundef %93, ptr noundef %94, ptr noundef %95, ptr noundef %96, ptr noundef %97, ptr noundef %98, ptr noundef %99, ptr noundef %100, ptr noundef %101, ptr noundef %102, ptr noundef %103, ptr noundef %104, ptr noundef %105)
  store ptr %106, ptr %44, align 8, !tbaa !4
  %107 = load ptr, ptr %44, align 8, !tbaa !4
  store ptr %107, ptr %19, align 8
  call void @llvm.lifetime.end.p0(i64 8, ptr %44) #8
  call void @llvm.lifetime.end.p0(i64 8, ptr %43) #8
  call void @llvm.lifetime.end.p0(i64 8, ptr %42) #8
  br label %108

108:                                              ; preds = %79, %49
  %109 = load ptr, ptr %19, align 8
  ret ptr %109
}